target datalayout = "e-m:e-p270:32:32-p271:32:32-p272:64:64-i64:64-i128:128-f80:128-n8:16:32:64-S128"
target triple = "x86_64-pc-linux-gnu"

@.str.164 = private unnamed_addr constant [31 x i8] c"%s: [%s] RPC connection closed\00", align 1
@__func__._on_finish = private unnamed_addr constant [11 x i8] c"_on_finish\00", align 1

; Function Attrs: nounwind uwtable
define internal void @_on_finish(ptr noundef %0, ptr noundef %1) #0 {
  %3 = alloca ptr, align 8
  %4 = alloca ptr, align 8
  store ptr %0, ptr %3, align 8
  store ptr %1, ptr %4, align 8
  br label %5

5:                                                ; preds = %2
  br label %6

6:                                                ; preds = %5
  %7 = call i32 @get_log_level()
  %8 = icmp sge i32 %7, 7
  br i1 %8, label %9, label %12

9:                                                ; preds = %6
  %10 = load ptr, ptr %3, align 8
  %11 = call ptr @conmgr_fd_get_name(ptr noundef %10)
  call void (i32, ptr, ...) @log_var(i32 noundef 7, ptr noundef @.str.164, ptr noundef @__func__._on_finish, ptr noundef %11)
  br label %12

12:                                               ; preds = %9, %6
  br label %13

13:                                               ; preds = %12
  br label %14

14:                                               ; preds = %13
  ret void
}