; Function Attrs: nounwind uwtable
define internal void @_on_finish(ptr noundef %0, ptr readnone captures(none) %1) #0 {
  %3 = tail call i32 @get_log_level() #18
  %4 = icmp sgt i32 %3, 6
  br i1 %4, label %5, label %7

5:                                                ; preds = %2
  %6 = tail call ptr @conmgr_fd_get_name(ptr noundef %0) #18
  tail call void (i32, ptr, ...) @log_var(i32 noundef 7, ptr noundef nonnull @.str.164, ptr noundef nonnull @__func__._on_finish, ptr noundef %6) #18
  br label %7

7:                                                ; preds = %5, %2
  ret void
}